; Function Attrs: nounwind uwtable
define void @luckyCanonicizer_final_fast_16Vars(ptr noundef %0, i32 noundef %1, i32 noundef %2, ptr noundef %3, ptr noundef %4, ptr noundef captures(none) initializes((0, 4)) %5) local_unnamed_addr #0 {
  %7 = tail call i32 @Kit_TruthSemiCanonicize_Yasha1(ptr noundef %0, i32 noundef %1, ptr noundef %4, ptr noundef %3) #9
  store i32 %7, ptr %5, align 4, !tbaa !6
  %8 = add nsw i32 %1, 1
  %9 = shl nuw i32 1, %8
  %10 = and i32 %7, %9
  %.not.i = icmp eq i32 %10, 0
  br i1 %.not.i, label %.preheader.i, label %.preheader15.i

.preheader15.i:                                   ; preds = %6, %.preheader15.i
  %11 = tail call i32 @minimalSwapAndFlipIVar_superFast_all(ptr noundef %0, i32 noundef %1, i32 noundef %2, ptr noundef readonly %3, ptr noundef %4, ptr noundef nonnull %5)
  %.not14.i = icmp eq i32 %11, 0
  br i1 %.not14.i, label %luckyCanonicizerS_F_first_16Vars1.exit, label %.preheader15.i, !llvm.loop !36

.preheader.i:                                     ; preds = %6, %.preheader.i
  %12 = tail call i32 @minimalSwapAndFlipIVar_superFast_all_noEBFC(ptr noundef %0, i32 noundef %1, i32 noundef %2, ptr noundef readonly %3, ptr noundef %4, ptr noundef nonnull %5)
  %.not13.i = icmp eq i32 %12, 0
  br i1 %.not13.i, label %luckyCanonicizerS_F_first_16Vars1.exit, label %.preheader.i, !llvm.loop !37

luckyCanonicizerS_F_first_16Vars1.exit:           ; preds = %.preheader15.i, %.preheader.i
  ret void
}